target datalayout = "e-m:e-p270:32:32-p271:32:32-p272:64:64-i64:64-i128:128-f80:128-n8:16:32:64-S128"
target triple = "x86_64-pc-linux-gnu"

%struct.object_id = type { [32 x i8], i32 }
%struct.startup_info = type { i32, ptr, ptr }

@default_attr_source_tree_object_name = internal global ptr null, align 8
@git_attr_tree = dso_local global ptr null, align 8
@default_attr_source.attr_source = internal global %struct.object_id zeroinitializer, align 4
@default_attr_source.has_attr_source = internal global i32 -1, align 4
@.str.21 = private unnamed_addr constant [16 x i8] c"GIT_ATTR_SOURCE\00", align 1
@startup_info = external global ptr, align 8
@.str.22 = private unnamed_addr constant [57 x i8] c"cannot use --attr-source or GIT_ATTR_SOURCE without repo\00", align 1
@the_repository = external global ptr, align 8
@.str.23 = private unnamed_addr constant [37 x i8] c"bad --attr-source or GIT_ATTR_SOURCE\00", align 1

; Function Attrs: nounwind uwtable
define internal i32 @compute_default_attr_source(ptr noundef %0) #0 {
  %2 = alloca i32, align 4
  %3 = alloca ptr, align 8
  %4 = alloca i32, align 4
  %5 = alloca i32, align 4
  store ptr %0, ptr %3, align 8, !tbaa !66
  call void @llvm.lifetime.start.p0(i64 4, ptr %4) #11
  store i32 0, ptr %4, align 4, !tbaa !13
  %6 = load ptr, ptr @default_attr_source_tree_object_name, align 8, !tbaa !9
  %7 = icmp ne ptr %6, null
  br i1 %7, label %10, label %8

8:                                                ; preds = %1
  %9 = call ptr @getenv(ptr noundef @.str.21) #11
  store ptr %9, ptr @default_attr_source_tree_object_name, align 8, !tbaa !9
  br label %10

10:                                               ; preds = %8, %1
  %11 = load ptr, ptr @default_attr_source_tree_object_name, align 8, !tbaa !9
  %12 = icmp ne ptr %11, null
  br i1 %12, label %18, label %13

13:                                               ; preds = %10
  %14 = load ptr, ptr @git_attr_tree, align 8, !tbaa !9
  %15 = icmp ne ptr %14, null
  br i1 %15, label %16, label %18

16:                                               ; preds = %13
  %17 = load ptr, ptr @git_attr_tree, align 8, !tbaa !9
  store ptr %17, ptr @default_attr_source_tree_object_name, align 8, !tbaa !9
  store i32 1, ptr %4, align 4, !tbaa !13
  br label %18

18:                                               ; preds = %16, %13, %10
  %19 = load ptr, ptr @default_attr_source_tree_object_name, align 8, !tbaa !9
  %20 = icmp ne ptr %19, null
  br i1 %20, label %22, label %21

21:                                               ; preds = %18
  store i32 0, ptr %2, align 4
  store i32 1, ptr %5, align 4
  br label %46

22:                                               ; preds = %18
  %23 = load ptr, ptr @startup_info, align 8, !tbaa !99
  %24 = getelementptr inbounds nuw %struct.startup_info, ptr %23, i32 0, i32 0
  %25 = load i32, ptr %24, align 8, !tbaa !101
  %26 = icmp ne i32 %25, 0
  br i1 %26, label %33, label %27

27:                                               ; preds = %22
  %28 = load i32, ptr %4, align 4, !tbaa !13
  %29 = icmp ne i32 %28, 0
  br i1 %29, label %32, label %30

30:                                               ; preds = %27
  %31 = call ptr @_(ptr noundef @.str.22)
  call void (ptr, ...) @die(ptr noundef %31) #12
  unreachable

32:                                               ; preds = %27
  store i32 0, ptr %2, align 4
  store i32 1, ptr %5, align 4
  br label %46

33:                                               ; preds = %22
  %34 = load ptr, ptr @the_repository, align 8, !tbaa !103
  %35 = load ptr, ptr @default_attr_source_tree_object_name, align 8, !tbaa !9
  %36 = load ptr, ptr %3, align 8, !tbaa !66
  %37 = call i32 @repo_get_oid_treeish(ptr noundef %34, ptr noundef %35, ptr noundef %36)
  %38 = icmp ne i32 %37, 0
  br i1 %38, label %39, label %45

39:                                               ; preds = %33
  %40 = load i32, ptr %4, align 4, !tbaa !13
  %41 = icmp ne i32 %40, 0
  br i1 %41, label %44, label %42

42:                                               ; preds = %39
  %43 = call ptr @_(ptr noundef @.str.23)
  call void (ptr, ...) @die(ptr noundef %43) #12
  unreachable

44:                                               ; preds = %39
  store i32 0, ptr %2, align 4
  store i32 1, ptr %5, align 4
  br label %46

45:                                               ; preds = %33
  store i32 1, ptr %2, align 4
  store i32 1, ptr %5, align 4
  br label %46

46:                                               ; preds = %45, %44, %32, %21
  call void @llvm.lifetime.end.p0(i64 4, ptr %4) #11
  %47 = load i32, ptr %2, align 4
  ret i32 %47
}

; Function Attrs: nounwind uwtable
define internal ptr @default_attr_source() #0 {
  %1 = alloca ptr, align 8
  %2 = load i32, ptr @default_attr_source.has_attr_source, align 4, !tbaa !13
  %3 = icmp slt i32 %2, 0
  br i1 %3, label %4, label %6

4:                                                ; preds = %0
  %5 = call i32 @compute_default_attr_source(ptr noundef @default_attr_source.attr_source)
  store i32 %5, ptr @default_attr_source.has_attr_source, align 4, !tbaa !13
  br label %6

6:                                                ; preds = %4, %0
  %7 = load i32, ptr @default_attr_source.has_attr_source, align 4, !tbaa !13
  %8 = icmp ne i32 %7, 0
  br i1 %8, label %10, label %9

9:                                                ; preds = %6
  store ptr null, ptr %1, align 8
  br label %11

10:                                               ; preds = %6
  store ptr @default_attr_source.attr_source, ptr %1, align 8
  br label %11

11:                                               ; preds = %10, %9
  %12 = load ptr, ptr %1, align 8
  ret ptr %12
}