; Function Attrs: nounwind uwtable
define internal fastcc ptr @default_attr_source() unnamed_addr #1 {
  %1 = load i32, ptr @default_attr_source.has_attr_source, align 4, !tbaa !22
  %2 = icmp slt i32 %1, 0
  br i1 %2, label %3, label %24

3:                                                ; preds = %0
  %4 = load ptr, ptr @default_attr_source_tree_object_name, align 8, !tbaa !26
  %.not.i = icmp eq ptr %4, null
  br i1 %.not.i, label %5, label %.thread11.i

5:                                                ; preds = %3
  %6 = tail call ptr @getenv(ptr noundef nonnull @.str.21) #21
  store ptr %6, ptr @default_attr_source_tree_object_name, align 8, !tbaa !26
  %7 = icmp eq ptr %6, null
  %8 = load ptr, ptr @git_attr_tree, align 8
  %9 = icmp ne ptr %8, null
  %or.cond.not.not7.i = select i1 %7, i1 %9, i1 false
  br i1 %or.cond.not.not7.i, label %.thread2.i, label %10

10:                                               ; preds = %5
  br i1 %7, label %compute_default_attr_source.exit, label %.thread11.i

.thread11.i:                                      ; preds = %10, %3
  %11 = phi ptr [ %6, %10 ], [ %4, %3 ]
  %12 = load ptr, ptr @startup_info, align 8, !tbaa !101
  %13 = load i32, ptr %12, align 8, !tbaa !103
  %.not8.i = icmp eq i32 %13, 0
  br i1 %.not8.i, label %16, label %18

.thread2.i:                                       ; preds = %5
  store ptr %8, ptr @default_attr_source_tree_object_name, align 8, !tbaa !26
  %14 = load ptr, ptr @startup_info, align 8, !tbaa !101
  %15 = load i32, ptr %14, align 8, !tbaa !103
  %.not83.i = icmp eq i32 %15, 0
  br i1 %.not83.i, label %compute_default_attr_source.exit, label %18

16:                                               ; preds = %.thread11.i
  %17 = tail call fastcc ptr @_(ptr noundef nonnull @.str.22)
  tail call void (ptr, ...) @die(ptr noundef %17) #22
  unreachable

18:                                               ; preds = %.thread2.i, %.thread11.i
  %or.cond.not.not79.i = phi i1 [ true, %.thread2.i ], [ false, %.thread11.i ]
  %19 = phi ptr [ %8, %.thread2.i ], [ %11, %.thread11.i ]
  %20 = load ptr, ptr @the_repository, align 8, !tbaa !95
  %21 = tail call i32 @repo_get_oid_treeish(ptr noundef %20, ptr noundef nonnull %19, ptr noundef nonnull @default_attr_source.attr_source) #21
  %.not12.i = icmp eq i32 %21, 0
  %brmerge.i = or i1 %or.cond.not.not79.i, %.not12.i
  %.mux.i = zext i1 %.not12.i to i32
  br i1 %brmerge.i, label %compute_default_attr_source.exit, label %22

22:                                               ; preds = %18
  %23 = tail call fastcc ptr @_(ptr noundef nonnull @.str.23)
  tail call void (ptr, ...) @die(ptr noundef %23) #22
  unreachable

compute_default_attr_source.exit:                 ; preds = %10, %.thread2.i, %18
  %.04.i = phi i32 [ 0, %10 ], [ %.mux.i, %18 ], [ 0, %.thread2.i ]
  store i32 %.04.i, ptr @default_attr_source.has_attr_source, align 4, !tbaa !22
  br label %24

24:                                               ; preds = %compute_default_attr_source.exit, %0
  %25 = phi i32 [ %.04.i, %compute_default_attr_source.exit ], [ %1, %0 ]
  %.not = icmp eq i32 %25, 0
  %.default_attr_source.attr_source = select i1 %.not, ptr null, ptr @default_attr_source.attr_source
  ret ptr %.default_attr_source.attr_source
}